target datalayout = "e-m:e-p270:32:32-p271:32:32-p272:64:64-i64:64-i128:128-f80:128-n8:16:32:64-S128"
target triple = "x86_64-pc-linux-gnu"

%struct.eio_obj = type { i32, ptr, ptr, i8 }
%struct.client_io_info = type { i32, ptr, %struct.io_hdr_t, ptr, i32, i8, ptr, ptr, i32, i8, i32, i32, i8, i32, i8 }
%struct.io_hdr_t = type { i32, i16, i16, i32 }
%struct.stepd_step_rec_t = type { ptr, ptr, i32, %union.pthread_cond_t, %union.pthread_mutex_t, %struct.slurm_step_id_msg, i32, i32, i32, i32, i32, i32, ptr, ptr, i32, i32, ptr, i32, i32, i32, i32, i32, ptr, ptr, ptr, ptr, i32, i32, i64, i64, i16, i32, ptr, ptr, ptr, i32, ptr, i32, ptr, i32, ptr, i16, i32, i32, i32, ptr, i32, ptr, ptr, ptr, ptr, i32, i32, ptr, ptr, i8, i8, i8, i64, i32, ptr, ptr, ptr, ptr, ptr, ptr, ptr, ptr, ptr, ptr, i32, i32, ptr, i8, %union.pthread_cond_t, %union.pthread_mutex_t, i64, ptr, i32, i32, i32, ptr, i64, ptr, ptr, i8, ptr, i16, ptr, ptr, ptr, ptr, ptr, ptr, i64, ptr, i64, ptr, i16, i8, i16, i32, ptr, i16, ptr, ptr, i16, ptr, ptr, ptr, i8 }
%struct.slurm_step_id_msg = type { i64, i32, i32, i32 }
%union.pthread_cond_t = type { %struct.__pthread_cond_s }
%struct.__pthread_cond_s = type { %union.__atomic_wide_counter, %union.__atomic_wide_counter, [2 x i32], [2 x i32], i32, i32, [2 x i32] }
%union.__atomic_wide_counter = type { i64 }
%union.pthread_mutex_t = type { %struct.__pthread_mutex_s }
%struct.__pthread_mutex_s = type { i32, i32, i32, i32, i32, i16, i16, %struct.__pthread_internal_list }
%struct.__pthread_internal_list = type { ptr, ptr }

; Function Attrs: nounwind uwtable
define dso_local void @io_close_local_fds(ptr noundef %0) #0 {
  %2 = alloca ptr, align 8
  %3 = alloca ptr, align 8
  %4 = alloca ptr, align 8
  %5 = alloca i32, align 4
  %6 = alloca ptr, align 8
  %7 = alloca i32, align 4
  store ptr %0, ptr %2, align 8
  call void @llvm.lifetime.start.p0(i64 8, ptr %3) #10
  call void @llvm.lifetime.start.p0(i64 8, ptr %4) #10
  call void @llvm.lifetime.start.p0(i64 4, ptr %5) #10
  call void @llvm.lifetime.start.p0(i64 8, ptr %6) #10
  %8 = load ptr, ptr %2, align 8
  %9 = icmp eq ptr %8, null
  br i1 %9, label %15, label %10

10:                                               ; preds = %1
  %11 = load ptr, ptr %2, align 8
  %12 = getelementptr inbounds nuw %struct.stepd_step_rec_t, ptr %11, i32 0, i32 65
  %13 = load ptr, ptr %12, align 8
  %14 = icmp eq ptr %13, null
  br i1 %14, label %15, label %16

15:                                               ; preds = %10, %1
  store i32 1, ptr %7, align 4
  br label %60

16:                                               ; preds = %10
  %17 = load ptr, ptr %2, align 8
  %18 = getelementptr inbounds nuw %struct.stepd_step_rec_t, ptr %17, i32 0, i32 65
  %19 = load ptr, ptr %18, align 8
  %20 = call ptr @list_iterator_create(ptr noundef %19)
  store ptr %20, ptr %3, align 8
  br label %21

21:                                               ; preds = %57, %16
  %22 = load ptr, ptr %3, align 8
  %23 = call ptr @list_next(ptr noundef %22)
  store ptr %23, ptr %4, align 8
  %24 = icmp ne ptr %23, null
  br i1 %24, label %25, label %58

25:                                               ; preds = %21
  %26 = load ptr, ptr %4, align 8
  %27 = getelementptr inbounds nuw %struct.eio_obj, ptr %26, i32 0, i32 1
  %28 = load ptr, ptr %27, align 8
  store ptr %28, ptr %6, align 8
  %29 = load ptr, ptr %6, align 8
  %30 = getelementptr inbounds nuw %struct.client_io_info, ptr %29, i32 0, i32 14
  %31 = load i8, ptr %30, align 8, !range !8, !noundef !9
  %32 = trunc i8 %31 to i1
  br i1 %32, label %33, label %57

33:                                               ; preds = %25
  %34 = load ptr, ptr %4, align 8
  %35 = getelementptr inbounds nuw %struct.eio_obj, ptr %34, i32 0, i32 0
  %36 = load i32, ptr %35, align 8
  %37 = icmp sge i32 %36, 0
  br i1 %37, label %38, label %56

38:                                               ; preds = %33
  br label %39

39:                                               ; preds = %51, %38
  %40 = load ptr, ptr %4, align 8
  %41 = getelementptr inbounds nuw %struct.eio_obj, ptr %40, i32 0, i32 0
  %42 = load i32, ptr %41, align 8
  %43 = call i32 @close(i32 noundef %42)
  store i32 %43, ptr %5, align 4
  br label %44

44:                                               ; preds = %39
  %45 = load i32, ptr %5, align 4
  %46 = icmp eq i32 %45, -1
  br i1 %46, label %47, label %51

47:                                               ; preds = %44
  %48 = call ptr @__errno_location() #11
  %49 = load i32, ptr %48, align 4
  %50 = icmp eq i32 %49, 4
  br label %51

51:                                               ; preds = %47, %44
  %52 = phi i1 [ false, %44 ], [ %50, %47 ]
  br i1 %52, label %39, label %53, !llvm.loop !20

53:                                               ; preds = %51
  %54 = load ptr, ptr %4, align 8
  %55 = getelementptr inbounds nuw %struct.eio_obj, ptr %54, i32 0, i32 0
  store i32 -1, ptr %55, align 8
  br label %56

56:                                               ; preds = %53, %33
  br label %57

57:                                               ; preds = %56, %25
  br label %21, !llvm.loop !21

58:                                               ; preds = %21
  %59 = load ptr, ptr %3, align 8
  call void @list_iterator_destroy(ptr noundef %59)
  store i32 0, ptr %7, align 4
  br label %60

60:                                               ; preds = %58, %15
  call void @llvm.lifetime.end.p0(i64 8, ptr %6) #10
  call void @llvm.lifetime.end.p0(i64 4, ptr %5) #10
  call void @llvm.lifetime.end.p0(i64 8, ptr %4) #10
  call void @llvm.lifetime.end.p0(i64 8, ptr %3) #10
  %61 = load i32, ptr %7, align 4
  switch i32 %61, label %63 [
    i32 0, label %62
    i32 1, label %62
  ]

62:                                               ; preds = %60, %60
  ret void

63:                                               ; preds = %60
  unreachable
}