; Function Attrs: nounwind uwtable
define dso_local void @io_close_local_fds(ptr noundef readonly captures(address_is_null) %0) local_unnamed_addr #0 {
  %2 = icmp eq ptr %0, null
  br i1 %2, label %28, label %3

3:                                                ; preds = %1
  %4 = getelementptr inbounds nuw i8, ptr %0, i64 504
  %5 = load ptr, ptr %4, align 8
  %6 = icmp eq ptr %5, null
  br i1 %6, label %28, label %7

7:                                                ; preds = %3
  %8 = tail call ptr @list_iterator_create(ptr noundef nonnull %5) #11
  %9 = tail call ptr @list_next(ptr noundef %8) #11
  %.not12 = icmp eq ptr %9, null
  br i1 %.not12, label %._crit_edge, label %.lr.ph

.lr.ph:                                           ; preds = %7, %26
  %10 = phi ptr [ %27, %26 ], [ %9, %7 ]
  %11 = getelementptr inbounds nuw i8, ptr %10, i64 8
  %12 = load ptr, ptr %11, align 8
  %13 = getelementptr inbounds nuw i8, ptr %12, i64 88
  %14 = load i8, ptr %13, align 8, !range !8, !noundef !9
  %15 = trunc nuw i8 %14 to i1
  br i1 %15, label %16, label %26

16:                                               ; preds = %.lr.ph
  %17 = load i32, ptr %10, align 8
  %18 = icmp sgt i32 %17, -1
  br i1 %18, label %.preheader, label %26

.preheader:                                       ; preds = %16, %22
  %19 = load i32, ptr %10, align 8
  %20 = tail call i32 @close(i32 noundef %19) #11
  %21 = icmp eq i32 %20, -1
  br i1 %21, label %22, label %.critedge

22:                                               ; preds = %.preheader
  %23 = tail call ptr @__errno_location() #13
  %24 = load i32, ptr %23, align 4
  %25 = icmp eq i32 %24, 4
  br i1 %25, label %.preheader, label %.critedge, !llvm.loop !23

.critedge:                                        ; preds = %.preheader, %22
  store i32 -1, ptr %10, align 8
  br label %26

26:                                               ; preds = %16, %.critedge, %.lr.ph
  %27 = tail call ptr @list_next(ptr noundef %8) #11
  %.not = icmp eq ptr %27, null
  br i1 %.not, label %._crit_edge, label %.lr.ph, !llvm.loop !24

._crit_edge:                                      ; preds = %26, %7
  tail call void @list_iterator_destroy(ptr noundef %8) #11
  br label %28

28:                                               ; preds = %1, %3, %._crit_edge
  ret void
}